; Function Attrs: mustprogress nofree norecurse nosync nounwind willreturn memory(argmem: read) uwtable
define noundef zeroext i1 @_ZNK5Yosys14DriveChunkWire10can_appendERKNS_12DriveBitWireE(ptr noundef nonnull readonly align 8 captures(none) dereferenceable(16) %0, ptr noundef nonnull readonly align 8 captures(none) dereferenceable(12) %1) local_unnamed_addr #8 align 2 {
  %3 = load ptr, ptr %1, align 8, !tbaa !74
  %4 = load ptr, ptr %0, align 8, !tbaa !58
  %5 = icmp eq ptr %3, %4
  br i1 %5, label %6, label %15

6:                                                ; preds = %2
  %7 = getelementptr inbounds nuw i8, ptr %1, i64 8
  %8 = load i32, ptr %7, align 8, !tbaa !76
  %9 = getelementptr inbounds nuw i8, ptr %0, i64 8
  %10 = load i32, ptr %9, align 8, !tbaa !60
  %11 = getelementptr inbounds nuw i8, ptr %0, i64 12
  %12 = load i32, ptr %11, align 4, !tbaa !77
  %13 = add nsw i32 %12, %10
  %14 = icmp eq i32 %8, %13
  br label %15

15:                                               ; preds = %6, %2
  %16 = phi i1 [ false, %2 ], [ %14, %6 ]
  ret i1 %16
}